target datalayout = "e-m:e-p270:32:32-p271:32:32-p272:64:64-i64:64-i128:128-f80:128-n8:16:32:64-S128"
target triple = "x86_64-pc-linux-gnu"

; Function Attrs: mustprogress nounwind uwtable
define internal void @_ZN2cvL11weightHuberEPfiS0_f(ptr noundef %0, i32 noundef %1, ptr noundef %2, float noundef %3) #6 {
  %5 = alloca ptr, align 8
  %6 = alloca i32, align 4
  %7 = alloca ptr, align 8
  %8 = alloca float, align 4
  %9 = alloca i32, align 4
  %10 = alloca float, align 4
  store ptr %0, ptr %5, align 8, !tbaa !37
  store i32 %1, ptr %6, align 4, !tbaa !10
  store ptr %2, ptr %7, align 8, !tbaa !37
  store float %3, ptr %8, align 4, !tbaa !35
  call void @llvm.lifetime.start.p0(i64 4, ptr %9) #15
  call void @llvm.lifetime.start.p0(i64 4, ptr %10) #15
  %11 = load float, ptr %8, align 4, !tbaa !35
  %12 = fcmp ole float %11, 0.000000e+00
  br i1 %12, label %13, label %14

13:                                               ; preds = %4
  br label %16

14:                                               ; preds = %4
  %15 = load float, ptr %8, align 4, !tbaa !35
  br label %16

16:                                               ; preds = %14, %13
  %17 = phi float [ 0x3FF5851EC0000000, %13 ], [ %15, %14 ]
  store float %17, ptr %10, align 4, !tbaa !35
  store i32 0, ptr %9, align 4, !tbaa !10
  br label %18

18:                                               ; preds = %48, %16
  %19 = load i32, ptr %9, align 4, !tbaa !10
  %20 = load i32, ptr %6, align 4, !tbaa !10
  %21 = icmp slt i32 %19, %20
  br i1 %21, label %22, label %51

22:                                               ; preds = %18
  %23 = load ptr, ptr %5, align 8, !tbaa !37
  %24 = load i32, ptr %9, align 4, !tbaa !10
  %25 = sext i32 %24 to i64
  %26 = getelementptr inbounds float, ptr %23, i64 %25
  %27 = load float, ptr %26, align 4, !tbaa !35
  %28 = load float, ptr %10, align 4, !tbaa !35
  %29 = fcmp olt float %27, %28
  br i1 %29, label %30, label %35

30:                                               ; preds = %22
  %31 = load ptr, ptr %7, align 8, !tbaa !37
  %32 = load i32, ptr %9, align 4, !tbaa !10
  %33 = sext i32 %32 to i64
  %34 = getelementptr inbounds float, ptr %31, i64 %33
  store float 1.000000e+00, ptr %34, align 4, !tbaa !35
  br label %47

35:                                               ; preds = %22
  %36 = load float, ptr %10, align 4, !tbaa !35
  %37 = load ptr, ptr %5, align 8, !tbaa !37
  %38 = load i32, ptr %9, align 4, !tbaa !10
  %39 = sext i32 %38 to i64
  %40 = getelementptr inbounds float, ptr %37, i64 %39
  %41 = load float, ptr %40, align 4, !tbaa !35
  %42 = fdiv float %36, %41
  %43 = load ptr, ptr %7, align 8, !tbaa !37
  %44 = load i32, ptr %9, align 4, !tbaa !10
  %45 = sext i32 %44 to i64
  %46 = getelementptr inbounds float, ptr %43, i64 %45
  store float %42, ptr %46, align 4, !tbaa !35
  br label %47

47:                                               ; preds = %35, %30
  br label %48

48:                                               ; preds = %47
  %49 = load i32, ptr %9, align 4, !tbaa !10
  %50 = add nsw i32 %49, 1
  store i32 %50, ptr %9, align 4, !tbaa !10
  br label %18, !llvm.loop !90

51:                                               ; preds = %18
  call void @llvm.lifetime.end.p0(i64 4, ptr %10) #15
  call void @llvm.lifetime.end.p0(i64 4, ptr %9) #15
  ret void
}