; Function Attrs: mustprogress nofree norecurse nosync nounwind memory(argmem: readwrite) uwtable
define internal void @_ZN2cvL11weightHuberEPfiS0_f(ptr noundef readonly captures(none) %0, i32 noundef %1, ptr noundef writeonly captures(none) %2, float noundef %3) unnamed_addr #7 {
  %5 = fcmp ole float %3, 0.000000e+00
  %6 = select i1 %5, float 0x3FF5851EC0000000, float %3
  %7 = icmp sgt i32 %1, 0
  br i1 %7, label %.lr.ph.preheader, label %._crit_edge

.lr.ph.preheader:                                 ; preds = %4
  %wide.trip.count = zext nneg i32 %1 to i64
  br label %.lr.ph

.lr.ph:                                           ; preds = %.lr.ph.preheader, %.lr.ph
  %indvars.iv = phi i64 [ 0, %.lr.ph.preheader ], [ %indvars.iv.next, %.lr.ph ]
  %8 = getelementptr inbounds nuw float, ptr %0, i64 %indvars.iv
  %9 = load float, ptr %8, align 4, !tbaa !33
  %10 = fcmp olt float %9, %6
  %11 = fdiv float %6, %9
  %.sink = select i1 %10, float 1.000000e+00, float %11
  %12 = getelementptr inbounds nuw float, ptr %2, i64 %indvars.iv
  store float %.sink, ptr %12, align 4, !tbaa !33
  %indvars.iv.next = add nuw nsw i64 %indvars.iv, 1
  %exitcond.not = icmp eq i64 %indvars.iv.next, %wide.trip.count
  br i1 %exitcond.not, label %._crit_edge, label %.lr.ph, !llvm.loop !75

._crit_edge:                                      ; preds = %.lr.ph, %4
  ret void
}